ARM GAS  C:\Users\MARIUS~1\AppData\Local\Temp\ccaHQ2EK.s 			page 1


   1              		.cpu cortex-m0
   2              		.eabi_attribute 20, 1
   3              		.eabi_attribute 21, 1
   4              		.eabi_attribute 23, 3
   5              		.eabi_attribute 24, 1
   6              		.eabi_attribute 25, 1
   7              		.eabi_attribute 26, 1
   8              		.eabi_attribute 30, 1
   9              		.eabi_attribute 34, 0
  10              		.eabi_attribute 18, 4
  11              		.file	"main.c"
  12              		.text
  13              	.Ltext0:
  14              		.cfi_sections	.debug_frame
  15              		.section	.text._Error_Handler,"ax",%progbits
  16              		.align	1
  17              		.global	_Error_Handler
  18              		.syntax unified
  19              		.code	16
  20              		.thumb_func
  21              		.fpu softvfp
  23              	_Error_Handler:
  24              	.LFB39:
  25              		.file 1 "Src/main.c"
   1:Src/main.c    **** 
   2:Src/main.c    **** /**
   3:Src/main.c    ****   ******************************************************************************
   4:Src/main.c    ****   * @file           : main.c
   5:Src/main.c    ****   * @brief          : Main program body
   6:Src/main.c    ****   ******************************************************************************
   7:Src/main.c    ****   ** This notice applies to any and all portions of this file
   8:Src/main.c    ****   * that are not between comment pairs USER CODE BEGIN and
   9:Src/main.c    ****   * USER CODE END. Other portions of this file, whether
  10:Src/main.c    ****   * inserted by the user or by software development tools
  11:Src/main.c    ****   * are owned by their respective copyright owners.
  12:Src/main.c    ****   *
  13:Src/main.c    ****   * COPYRIGHT(c) 2018 STMicroelectronics
  14:Src/main.c    ****   *
  15:Src/main.c    ****   * Redistribution and use in source and binary forms, with or without modification,
  16:Src/main.c    ****   * are permitted provided that the following conditions are met:
  17:Src/main.c    ****   *   1. Redistributions of source code must retain the above copyright notice,
  18:Src/main.c    ****   *      this list of conditions and the following disclaimer.
  19:Src/main.c    ****   *   2. Redistributions in binary form must reproduce the above copyright notice,
  20:Src/main.c    ****   *      this list of conditions and the following disclaimer in the documentation
  21:Src/main.c    ****   *      and/or other materials provided with the distribution.
  22:Src/main.c    ****   *   3. Neither the name of STMicroelectronics nor the names of its contributors
  23:Src/main.c    ****   *      may be used to endorse or promote products derived from this software
  24:Src/main.c    ****   *      without specific prior written permission.
  25:Src/main.c    ****   *
  26:Src/main.c    ****   * THIS SOFTWARE IS PROVIDED BY THE COPYRIGHT HOLDERS AND CONTRIBUTORS "AS IS"
  27:Src/main.c    ****   * AND ANY EXPRESS OR IMPLIED WARRANTIES, INCLUDING, BUT NOT LIMITED TO, THE
  28:Src/main.c    ****   * IMPLIED WARRANTIES OF MERCHANTABILITY AND FITNESS FOR A PARTICULAR PURPOSE ARE
  29:Src/main.c    ****   * DISCLAIMED. IN NO EVENT SHALL THE COPYRIGHT HOLDER OR CONTRIBUTORS BE LIABLE
  30:Src/main.c    ****   * FOR ANY DIRECT, INDIRECT, INCIDENTAL, SPECIAL, EXEMPLARY, OR CONSEQUENTIAL
  31:Src/main.c    ****   * DAMAGES (INCLUDING, BUT NOT LIMITED TO, PROCUREMENT OF SUBSTITUTE GOODS OR
  32:Src/main.c    ****   * SERVICES; LOSS OF USE, DATA, OR PROFITS; OR BUSINESS INTERRUPTION) HOWEVER
  33:Src/main.c    ****   * CAUSED AND ON ANY THEORY OF LIABILITY, WHETHER IN CONTRACT, STRICT LIABILITY,
ARM GAS  C:\Users\MARIUS~1\AppData\Local\Temp\ccaHQ2EK.s 			page 2


  34:Src/main.c    ****   * OR TORT (INCLUDING NEGLIGENCE OR OTHERWISE) ARISING IN ANY WAY OUT OF THE USE
  35:Src/main.c    ****   * OF THIS SOFTWARE, EVEN IF ADVISED OF THE POSSIBILITY OF SUCH DAMAGE.
  36:Src/main.c    ****   *
  37:Src/main.c    ****   ******************************************************************************
  38:Src/main.c    ****   */
  39:Src/main.c    **** /* Includes ------------------------------------------------------------------*/
  40:Src/main.c    **** #include "main.h"
  41:Src/main.c    **** #include "stm32f0xx_hal.h"
  42:Src/main.c    **** #include "i2c.h"
  43:Src/main.c    **** #include "rtc.h"
  44:Src/main.c    **** #include "usart.h"
  45:Src/main.c    **** #include "gpio.h"
  46:Src/main.c    **** 
  47:Src/main.c    **** /* USER CODE BEGIN Includes */
  48:Src/main.c    **** 
  49:Src/main.c    **** /* USER CODE END Includes */
  50:Src/main.c    **** 
  51:Src/main.c    **** /* Private variables ---------------------------------------------------------*/
  52:Src/main.c    **** 
  53:Src/main.c    **** /* USER CODE BEGIN PV */
  54:Src/main.c    **** /* Private variables ---------------------------------------------------------*/
  55:Src/main.c    **** 
  56:Src/main.c    **** /* USER CODE END PV */
  57:Src/main.c    **** 
  58:Src/main.c    **** /* Private function prototypes -----------------------------------------------*/
  59:Src/main.c    **** void SystemClock_Config(void);
  60:Src/main.c    **** 
  61:Src/main.c    **** /* USER CODE BEGIN PFP */
  62:Src/main.c    **** /* Private function prototypes -----------------------------------------------*/
  63:Src/main.c    **** 
  64:Src/main.c    **** /* USER CODE END PFP */
  65:Src/main.c    **** 
  66:Src/main.c    **** /* USER CODE BEGIN 0 */
  67:Src/main.c    **** 
  68:Src/main.c    **** /* USER CODE END 0 */
  69:Src/main.c    **** 
  70:Src/main.c    **** /**
  71:Src/main.c    ****   * @brief  The application entry point.
  72:Src/main.c    ****   *
  73:Src/main.c    ****   * @retval None
  74:Src/main.c    ****   */
  75:Src/main.c    **** int main(void)
  76:Src/main.c    **** {
  77:Src/main.c    ****   /* USER CODE BEGIN 1 */
  78:Src/main.c    **** 
  79:Src/main.c    ****   /* USER CODE END 1 */
  80:Src/main.c    **** 
  81:Src/main.c    ****   /* MCU Configuration----------------------------------------------------------*/
  82:Src/main.c    **** 
  83:Src/main.c    ****   /* Reset of all peripherals, Initializes the Flash interface and the Systick. */
  84:Src/main.c    ****   HAL_Init();
  85:Src/main.c    **** 
  86:Src/main.c    ****   /* USER CODE BEGIN Init */
  87:Src/main.c    **** 
  88:Src/main.c    ****   /* USER CODE END Init */
  89:Src/main.c    **** 
  90:Src/main.c    ****   /* Configure the system clock */
ARM GAS  C:\Users\MARIUS~1\AppData\Local\Temp\ccaHQ2EK.s 			page 3


  91:Src/main.c    ****   SystemClock_Config();
  92:Src/main.c    **** 
  93:Src/main.c    ****   /* USER CODE BEGIN SysInit */
  94:Src/main.c    **** 
  95:Src/main.c    ****   /* USER CODE END SysInit */
  96:Src/main.c    **** 
  97:Src/main.c    ****   /* Initialize all configured peripherals */
  98:Src/main.c    ****   MX_GPIO_Init();
  99:Src/main.c    ****   MX_I2C2_Init();
 100:Src/main.c    ****   MX_RTC_Init();
 101:Src/main.c    ****   MX_USART2_UART_Init();
 102:Src/main.c    ****   /* USER CODE BEGIN 2 */
 103:Src/main.c    **** 
 104:Src/main.c    ****   pca9685_init();
 105:Src/main.c    **** 
 106:Src/main.c    ****   /* USER CODE END 2 */
 107:Src/main.c    ****   debugPrint("IKEA LED V1.00\n");
 108:Src/main.c    **** 
 109:Src/main.c    ****   /* Infinite loop */
 110:Src/main.c    **** 
 111:Src/main.c    ****   pca9685_set_pin(1,2048);
 112:Src/main.c    **** 
 113:Src/main.c    ****   while (1)
 114:Src/main.c    ****   {
 115:Src/main.c    **** 
 116:Src/main.c    **** 
 117:Src/main.c    **** 
 118:Src/main.c    ****   //read command TODO: implementation
 119:Src/main.c    ****   /*
 120:Src/main.c    ****   debugPrint("type "h" for help");
 121:Src/main.c    ****   debugRead();
 122:Src/main.c    ****   */
 123:Src/main.c    **** 
 124:Src/main.c    ****   }
 125:Src/main.c    **** 
 126:Src/main.c    **** 
 127:Src/main.c    **** }
 128:Src/main.c    **** 
 129:Src/main.c    **** /**
 130:Src/main.c    ****   * @brief System Clock Configuration
 131:Src/main.c    ****   * @retval None
 132:Src/main.c    ****   */
 133:Src/main.c    **** void SystemClock_Config(void)
 134:Src/main.c    **** {
 135:Src/main.c    **** 
 136:Src/main.c    ****   RCC_OscInitTypeDef RCC_OscInitStruct;
 137:Src/main.c    ****   RCC_ClkInitTypeDef RCC_ClkInitStruct;
 138:Src/main.c    ****   RCC_PeriphCLKInitTypeDef PeriphClkInit;
 139:Src/main.c    **** 
 140:Src/main.c    ****     /**Configure LSE Drive Capability
 141:Src/main.c    ****     */
 142:Src/main.c    ****   HAL_PWR_EnableBkUpAccess();
 143:Src/main.c    **** 
 144:Src/main.c    ****   __HAL_RCC_LSEDRIVE_CONFIG(RCC_LSEDRIVE_HIGH);
 145:Src/main.c    **** 
 146:Src/main.c    ****     /**Initializes the CPU, AHB and APB busses clocks
 147:Src/main.c    ****     */
ARM GAS  C:\Users\MARIUS~1\AppData\Local\Temp\ccaHQ2EK.s 			page 4


 148:Src/main.c    ****   RCC_OscInitStruct.OscillatorType = RCC_OSCILLATORTYPE_HSI|RCC_OSCILLATORTYPE_LSE;
 149:Src/main.c    ****   RCC_OscInitStruct.LSEState = RCC_LSE_ON;
 150:Src/main.c    ****   RCC_OscInitStruct.HSIState = RCC_HSI_ON;
 151:Src/main.c    ****   RCC_OscInitStruct.HSICalibrationValue = 16;
 152:Src/main.c    ****   RCC_OscInitStruct.PLL.PLLState = RCC_PLL_NONE;
 153:Src/main.c    ****   if (HAL_RCC_OscConfig(&RCC_OscInitStruct) != HAL_OK)
 154:Src/main.c    ****   {
 155:Src/main.c    ****     _Error_Handler(__FILE__, __LINE__);
 156:Src/main.c    ****   }
 157:Src/main.c    **** 
 158:Src/main.c    ****     /**Initializes the CPU, AHB and APB busses clocks
 159:Src/main.c    ****     */
 160:Src/main.c    ****   RCC_ClkInitStruct.ClockType = RCC_CLOCKTYPE_HCLK|RCC_CLOCKTYPE_SYSCLK
 161:Src/main.c    ****                               |RCC_CLOCKTYPE_PCLK1;
 162:Src/main.c    ****   RCC_ClkInitStruct.SYSCLKSource = RCC_SYSCLKSOURCE_HSI;
 163:Src/main.c    ****   RCC_ClkInitStruct.AHBCLKDivider = RCC_SYSCLK_DIV1;
 164:Src/main.c    ****   RCC_ClkInitStruct.APB1CLKDivider = RCC_HCLK_DIV1;
 165:Src/main.c    **** 
 166:Src/main.c    ****   if (HAL_RCC_ClockConfig(&RCC_ClkInitStruct, FLASH_LATENCY_0) != HAL_OK)
 167:Src/main.c    ****   {
 168:Src/main.c    ****     _Error_Handler(__FILE__, __LINE__);
 169:Src/main.c    ****   }
 170:Src/main.c    **** 
 171:Src/main.c    ****   PeriphClkInit.PeriphClockSelection = RCC_PERIPHCLK_RTC;
 172:Src/main.c    ****   PeriphClkInit.RTCClockSelection = RCC_RTCCLKSOURCE_LSE;
 173:Src/main.c    ****   if (HAL_RCCEx_PeriphCLKConfig(&PeriphClkInit) != HAL_OK)
 174:Src/main.c    ****   {
 175:Src/main.c    ****     _Error_Handler(__FILE__, __LINE__);
 176:Src/main.c    ****   }
 177:Src/main.c    **** 
 178:Src/main.c    ****     /**Configure the Systick interrupt time
 179:Src/main.c    ****     */
 180:Src/main.c    ****   HAL_SYSTICK_Config(HAL_RCC_GetHCLKFreq()/1000);
 181:Src/main.c    **** 
 182:Src/main.c    ****     /**Configure the Systick
 183:Src/main.c    ****     */
 184:Src/main.c    ****   HAL_SYSTICK_CLKSourceConfig(SYSTICK_CLKSOURCE_HCLK);
 185:Src/main.c    **** 
 186:Src/main.c    ****   /* SysTick_IRQn interrupt configuration */
 187:Src/main.c    ****   HAL_NVIC_SetPriority(SysTick_IRQn, 0, 0);
 188:Src/main.c    **** }
 189:Src/main.c    **** 
 190:Src/main.c    **** /* USER CODE BEGIN 4 */
 191:Src/main.c    **** 
 192:Src/main.c    **** 
 193:Src/main.c    **** 
 194:Src/main.c    **** 
 195:Src/main.c    **** /* USER CODE END 4 */
 196:Src/main.c    **** 
 197:Src/main.c    **** /**
 198:Src/main.c    ****   * @brief  This function is executed in case of error occurrence.
 199:Src/main.c    ****   * @param  file: The file name as string.
 200:Src/main.c    ****   * @param  line: The line in file as a number.
 201:Src/main.c    ****   * @retval None
 202:Src/main.c    ****   */
 203:Src/main.c    **** void _Error_Handler(char *file, int line)
 204:Src/main.c    **** {
ARM GAS  C:\Users\MARIUS~1\AppData\Local\Temp\ccaHQ2EK.s 			page 5


  26              		.loc 1 204 0
  27              		.cfi_startproc
  28              		@ Volatile: function does not return.
  29              		@ args = 0, pretend = 0, frame = 0
  30              		@ frame_needed = 0, uses_anonymous_args = 0
  31              		@ link register save eliminated.
  32              	.LVL0:
  33              	.L2:
  34 0000 FEE7     		b	.L2
  35              		.cfi_endproc
  36              	.LFE39:
  38              		.global	__aeabi_uidiv
  39              		.section	.text.SystemClock_Config,"ax",%progbits
  40              		.align	1
  41              		.global	SystemClock_Config
  42              		.syntax unified
  43              		.code	16
  44              		.thumb_func
  45              		.fpu softvfp
  47              	SystemClock_Config:
  48              	.LFB38:
 134:Src/main.c    **** 
  49              		.loc 1 134 0
  50              		.cfi_startproc
  51              		@ args = 0, pretend = 0, frame = 80
  52              		@ frame_needed = 0, uses_anonymous_args = 0
 134:Src/main.c    **** 
  53              		.loc 1 134 0
  54 0000 00B5     		push	{lr}
  55              	.LCFI0:
  56              		.cfi_def_cfa_offset 4
  57              		.cfi_offset 14, -4
  58 0002 95B0     		sub	sp, sp, #84
  59              	.LCFI1:
  60              		.cfi_def_cfa_offset 88
 142:Src/main.c    **** 
  61              		.loc 1 142 0
  62 0004 FFF7FEFF 		bl	HAL_PWR_EnableBkUpAccess
  63              	.LVL1:
 144:Src/main.c    **** 
  64              		.loc 1 144 0
  65 0008 244A     		ldr	r2, .L10
  66 000a 136A     		ldr	r3, [r2, #32]
  67 000c 1821     		movs	r1, #24
  68 000e 0B43     		orrs	r3, r1
  69 0010 1362     		str	r3, [r2, #32]
 148:Src/main.c    ****   RCC_OscInitStruct.LSEState = RCC_LSE_ON;
  70              		.loc 1 148 0
  71 0012 0623     		movs	r3, #6
  72 0014 0893     		str	r3, [sp, #32]
 149:Src/main.c    ****   RCC_OscInitStruct.HSIState = RCC_HSI_ON;
  73              		.loc 1 149 0
  74 0016 053B     		subs	r3, r3, #5
  75 0018 0A93     		str	r3, [sp, #40]
 150:Src/main.c    ****   RCC_OscInitStruct.HSICalibrationValue = 16;
  76              		.loc 1 150 0
  77 001a 0B93     		str	r3, [sp, #44]
ARM GAS  C:\Users\MARIUS~1\AppData\Local\Temp\ccaHQ2EK.s 			page 6


 151:Src/main.c    ****   RCC_OscInitStruct.PLL.PLLState = RCC_PLL_NONE;
  78              		.loc 1 151 0
  79 001c 0F33     		adds	r3, r3, #15
  80 001e 0C93     		str	r3, [sp, #48]
 152:Src/main.c    ****   if (HAL_RCC_OscConfig(&RCC_OscInitStruct) != HAL_OK)
  81              		.loc 1 152 0
  82 0020 0023     		movs	r3, #0
  83 0022 1093     		str	r3, [sp, #64]
 153:Src/main.c    ****   {
  84              		.loc 1 153 0
  85 0024 08A8     		add	r0, sp, #32
  86 0026 FFF7FEFF 		bl	HAL_RCC_OscConfig
  87              	.LVL2:
  88 002a 0028     		cmp	r0, #0
  89 002c 29D1     		bne	.L7
 160:Src/main.c    ****                               |RCC_CLOCKTYPE_PCLK1;
  90              		.loc 1 160 0
  91 002e 0723     		movs	r3, #7
  92 0030 0493     		str	r3, [sp, #16]
 162:Src/main.c    ****   RCC_ClkInitStruct.AHBCLKDivider = RCC_SYSCLK_DIV1;
  93              		.loc 1 162 0
  94 0032 0023     		movs	r3, #0
  95 0034 0593     		str	r3, [sp, #20]
 163:Src/main.c    ****   RCC_ClkInitStruct.APB1CLKDivider = RCC_HCLK_DIV1;
  96              		.loc 1 163 0
  97 0036 0693     		str	r3, [sp, #24]
 164:Src/main.c    **** 
  98              		.loc 1 164 0
  99 0038 0793     		str	r3, [sp, #28]
 166:Src/main.c    ****   {
 100              		.loc 1 166 0
 101 003a 0021     		movs	r1, #0
 102 003c 04A8     		add	r0, sp, #16
 103 003e FFF7FEFF 		bl	HAL_RCC_ClockConfig
 104              	.LVL3:
 105 0042 0028     		cmp	r0, #0
 106 0044 21D1     		bne	.L8
 171:Src/main.c    ****   PeriphClkInit.RTCClockSelection = RCC_RTCCLKSOURCE_LSE;
 107              		.loc 1 171 0
 108 0046 8023     		movs	r3, #128
 109 0048 5B02     		lsls	r3, r3, #9
 110 004a 0093     		str	r3, [sp]
 172:Src/main.c    ****   if (HAL_RCCEx_PeriphCLKConfig(&PeriphClkInit) != HAL_OK)
 111              		.loc 1 172 0
 112 004c 8023     		movs	r3, #128
 113 004e 5B00     		lsls	r3, r3, #1
 114 0050 0193     		str	r3, [sp, #4]
 173:Src/main.c    ****   {
 115              		.loc 1 173 0
 116 0052 6846     		mov	r0, sp
 117 0054 FFF7FEFF 		bl	HAL_RCCEx_PeriphCLKConfig
 118              	.LVL4:
 119 0058 0028     		cmp	r0, #0
 120 005a 1AD1     		bne	.L9
 180:Src/main.c    **** 
 121              		.loc 1 180 0
 122 005c FFF7FEFF 		bl	HAL_RCC_GetHCLKFreq
ARM GAS  C:\Users\MARIUS~1\AppData\Local\Temp\ccaHQ2EK.s 			page 7


 123              	.LVL5:
 124 0060 FA21     		movs	r1, #250
 125 0062 8900     		lsls	r1, r1, #2
 126 0064 FFF7FEFF 		bl	__aeabi_uidiv
 127              	.LVL6:
 128 0068 FFF7FEFF 		bl	HAL_SYSTICK_Config
 129              	.LVL7:
 184:Src/main.c    **** 
 130              		.loc 1 184 0
 131 006c 0420     		movs	r0, #4
 132 006e FFF7FEFF 		bl	HAL_SYSTICK_CLKSourceConfig
 133              	.LVL8:
 187:Src/main.c    **** }
 134              		.loc 1 187 0
 135 0072 0120     		movs	r0, #1
 136 0074 0022     		movs	r2, #0
 137 0076 0021     		movs	r1, #0
 138 0078 4042     		rsbs	r0, r0, #0
 139 007a FFF7FEFF 		bl	HAL_NVIC_SetPriority
 140              	.LVL9:
 188:Src/main.c    **** 
 141              		.loc 1 188 0
 142 007e 15B0     		add	sp, sp, #84
 143              		@ sp needed
 144 0080 00BD     		pop	{pc}
 145              	.L7:
 155:Src/main.c    ****   }
 146              		.loc 1 155 0
 147 0082 9B21     		movs	r1, #155
 148 0084 0648     		ldr	r0, .L10+4
 149 0086 FFF7FEFF 		bl	_Error_Handler
 150              	.LVL10:
 151              	.L8:
 168:Src/main.c    ****   }
 152              		.loc 1 168 0
 153 008a A821     		movs	r1, #168
 154 008c 0448     		ldr	r0, .L10+4
 155 008e FFF7FEFF 		bl	_Error_Handler
 156              	.LVL11:
 157              	.L9:
 175:Src/main.c    ****   }
 158              		.loc 1 175 0
 159 0092 AF21     		movs	r1, #175
 160 0094 0248     		ldr	r0, .L10+4
 161 0096 FFF7FEFF 		bl	_Error_Handler
 162              	.LVL12:
 163              	.L11:
 164 009a C046     		.align	2
 165              	.L10:
 166 009c 00100240 		.word	1073876992
 167 00a0 00000000 		.word	.LC0
 168              		.cfi_endproc
 169              	.LFE38:
 171              		.section	.text.main,"ax",%progbits
 172              		.align	1
 173              		.global	main
 174              		.syntax unified
ARM GAS  C:\Users\MARIUS~1\AppData\Local\Temp\ccaHQ2EK.s 			page 8


 175              		.code	16
 176              		.thumb_func
 177              		.fpu softvfp
 179              	main:
 180              	.LFB37:
  76:Src/main.c    ****   /* USER CODE BEGIN 1 */
 181              		.loc 1 76 0
 182              		.cfi_startproc
 183              		@ Volatile: function does not return.
 184              		@ args = 0, pretend = 0, frame = 0
 185              		@ frame_needed = 0, uses_anonymous_args = 0
 186 0000 10B5     		push	{r4, lr}
 187              	.LCFI2:
 188              		.cfi_def_cfa_offset 8
 189              		.cfi_offset 4, -8
 190              		.cfi_offset 14, -4
  84:Src/main.c    **** 
 191              		.loc 1 84 0
 192 0002 FFF7FEFF 		bl	HAL_Init
 193              	.LVL13:
  91:Src/main.c    **** 
 194              		.loc 1 91 0
 195 0006 FFF7FEFF 		bl	SystemClock_Config
 196              	.LVL14:
  98:Src/main.c    ****   MX_I2C2_Init();
 197              		.loc 1 98 0
 198 000a FFF7FEFF 		bl	MX_GPIO_Init
 199              	.LVL15:
  99:Src/main.c    ****   MX_RTC_Init();
 200              		.loc 1 99 0
 201 000e FFF7FEFF 		bl	MX_I2C2_Init
 202              	.LVL16:
 100:Src/main.c    ****   MX_USART2_UART_Init();
 203              		.loc 1 100 0
 204 0012 FFF7FEFF 		bl	MX_RTC_Init
 205              	.LVL17:
 101:Src/main.c    ****   /* USER CODE BEGIN 2 */
 206              		.loc 1 101 0
 207 0016 FFF7FEFF 		bl	MX_USART2_UART_Init
 208              	.LVL18:
 104:Src/main.c    **** 
 209              		.loc 1 104 0
 210 001a FFF7FEFF 		bl	pca9685_init
 211              	.LVL19:
 107:Src/main.c    **** 
 212              		.loc 1 107 0
 213 001e 0448     		ldr	r0, .L14
 214 0020 FFF7FEFF 		bl	debugPrint
 215              	.LVL20:
 111:Src/main.c    **** 
 216              		.loc 1 111 0
 217 0024 8021     		movs	r1, #128
 218 0026 0901     		lsls	r1, r1, #4
 219 0028 0120     		movs	r0, #1
 220 002a FFF7FEFF 		bl	pca9685_set_pin
 221              	.LVL21:
 222              	.L13:
ARM GAS  C:\Users\MARIUS~1\AppData\Local\Temp\ccaHQ2EK.s 			page 9


 223 002e FEE7     		b	.L13
 224              	.L15:
 225              		.align	2
 226              	.L14:
 227 0030 00000000 		.word	.LC2
 228              		.cfi_endproc
 229              	.LFE37:
 231              		.section	.rodata.SystemClock_Config.str1.4,"aMS",%progbits,1
 232              		.align	2
 233              	.LC0:
 234 0000 5372632F 		.ascii	"Src/main.c\000"
 234      6D61696E 
 234      2E6300
 235              		.section	.rodata.main.str1.4,"aMS",%progbits,1
 236              		.align	2
 237              	.LC2:
 238 0000 494B4541 		.ascii	"IKEA LED V1.00\012\000"
 238      204C4544 
 238      2056312E 
 238      30300A00 
 239              		.text
 240              	.Letext0:
 241              		.file 2 "c:\\program files (x86)\\gnu tools arm embedded\\7 2018-q2-update\\arm-none-eabi\\include
 242              		.file 3 "c:\\program files (x86)\\gnu tools arm embedded\\7 2018-q2-update\\arm-none-eabi\\include
 243              		.file 4 "Drivers/CMSIS/Device/ST/STM32F0xx/Include/system_stm32f0xx.h"
 244              		.file 5 "Drivers/CMSIS/Device/ST/STM32F0xx/Include/stm32f030xc.h"
 245              		.file 6 "c:\\program files (x86)\\gnu tools arm embedded\\7 2018-q2-update\\arm-none-eabi\\include
 246              		.file 7 "c:\\program files (x86)\\gnu tools arm embedded\\7 2018-q2-update\\arm-none-eabi\\include
 247              		.file 8 "c:\\program files (x86)\\gnu tools arm embedded\\7 2018-q2-update\\lib\\gcc\\arm-none-eab
 248              		.file 9 "c:\\program files (x86)\\gnu tools arm embedded\\7 2018-q2-update\\arm-none-eabi\\include
 249              		.file 10 "Drivers/STM32F0xx_HAL_Driver/Inc/stm32f0xx_hal_def.h"
 250              		.file 11 "Drivers/STM32F0xx_HAL_Driver/Inc/stm32f0xx_hal_rcc.h"
 251              		.file 12 "Drivers/STM32F0xx_HAL_Driver/Inc/stm32f0xx_hal_rcc_ex.h"
 252              		.file 13 "Drivers/STM32F0xx_HAL_Driver/Inc/stm32f0xx_hal_dma.h"
 253              		.file 14 "Drivers/STM32F0xx_HAL_Driver/Inc/stm32f0xx_hal_i2c.h"
 254              		.file 15 "Drivers/STM32F0xx_HAL_Driver/Inc/stm32f0xx_hal_rtc.h"
 255              		.file 16 "Drivers/STM32F0xx_HAL_Driver/Inc/stm32f0xx_hal_uart.h"
 256              		.file 17 "Inc/i2c.h"
 257              		.file 18 "Inc/rtc.h"
 258              		.file 19 "Inc/usart.h"
 259              		.file 20 "Drivers/STM32F0xx_HAL_Driver/Inc/stm32f0xx_hal_pwr.h"
 260              		.file 21 "Drivers/STM32F0xx_HAL_Driver/Inc/stm32f0xx_hal_cortex.h"
 261              		.file 22 "Drivers/STM32F0xx_HAL_Driver/Inc/stm32f0xx_hal.h"
 262              		.file 23 "Inc/gpio.h"
ARM GAS  C:\Users\MARIUS~1\AppData\Local\Temp\ccaHQ2EK.s 			page 10

