ARM GAS  C:\Users\MARIUS~1\AppData\Local\Temp\ccLGaoGk.s 			page 1


   1              		.cpu cortex-m0
   2              		.eabi_attribute 20, 1
   3              		.eabi_attribute 21, 1
   4              		.eabi_attribute 23, 3
   5              		.eabi_attribute 24, 1
   6              		.eabi_attribute 25, 1
   7              		.eabi_attribute 26, 1
   8              		.eabi_attribute 30, 1
   9              		.eabi_attribute 34, 0
  10              		.eabi_attribute 18, 4
  11              		.file	"rtc.c"
  12              		.text
  13              	.Ltext0:
  14              		.cfi_sections	.debug_frame
  15              		.section	.text.MX_RTC_Init,"ax",%progbits
  16              		.align	1
  17              		.global	MX_RTC_Init
  18              		.syntax unified
  19              		.code	16
  20              		.thumb_func
  21              		.fpu softvfp
  23              	MX_RTC_Init:
  24              	.LFB37:
  25              		.file 1 "Src/rtc.c"
   1:Src/rtc.c     **** /**
   2:Src/rtc.c     ****   ******************************************************************************
   3:Src/rtc.c     ****   * File Name          : RTC.c
   4:Src/rtc.c     ****   * Description        : This file provides code for the configuration
   5:Src/rtc.c     ****   *                      of the RTC instances.
   6:Src/rtc.c     ****   ******************************************************************************
   7:Src/rtc.c     ****   ** This notice applies to any and all portions of this file
   8:Src/rtc.c     ****   * that are not between comment pairs USER CODE BEGIN and
   9:Src/rtc.c     ****   * USER CODE END. Other portions of this file, whether
  10:Src/rtc.c     ****   * inserted by the user or by software development tools
  11:Src/rtc.c     ****   * are owned by their respective copyright owners.
  12:Src/rtc.c     ****   *
  13:Src/rtc.c     ****   * COPYRIGHT(c) 2018 STMicroelectronics
  14:Src/rtc.c     ****   *
  15:Src/rtc.c     ****   * Redistribution and use in source and binary forms, with or without modification,
  16:Src/rtc.c     ****   * are permitted provided that the following conditions are met:
  17:Src/rtc.c     ****   *   1. Redistributions of source code must retain the above copyright notice,
  18:Src/rtc.c     ****   *      this list of conditions and the following disclaimer.
  19:Src/rtc.c     ****   *   2. Redistributions in binary form must reproduce the above copyright notice,
  20:Src/rtc.c     ****   *      this list of conditions and the following disclaimer in the documentation
  21:Src/rtc.c     ****   *      and/or other materials provided with the distribution.
  22:Src/rtc.c     ****   *   3. Neither the name of STMicroelectronics nor the names of its contributors
  23:Src/rtc.c     ****   *      may be used to endorse or promote products derived from this software
  24:Src/rtc.c     ****   *      without specific prior written permission.
  25:Src/rtc.c     ****   *
  26:Src/rtc.c     ****   * THIS SOFTWARE IS PROVIDED BY THE COPYRIGHT HOLDERS AND CONTRIBUTORS "AS IS"
  27:Src/rtc.c     ****   * AND ANY EXPRESS OR IMPLIED WARRANTIES, INCLUDING, BUT NOT LIMITED TO, THE
  28:Src/rtc.c     ****   * IMPLIED WARRANTIES OF MERCHANTABILITY AND FITNESS FOR A PARTICULAR PURPOSE ARE
  29:Src/rtc.c     ****   * DISCLAIMED. IN NO EVENT SHALL THE COPYRIGHT HOLDER OR CONTRIBUTORS BE LIABLE
  30:Src/rtc.c     ****   * FOR ANY DIRECT, INDIRECT, INCIDENTAL, SPECIAL, EXEMPLARY, OR CONSEQUENTIAL
  31:Src/rtc.c     ****   * DAMAGES (INCLUDING, BUT NOT LIMITED TO, PROCUREMENT OF SUBSTITUTE GOODS OR
  32:Src/rtc.c     ****   * SERVICES; LOSS OF USE, DATA, OR PROFITS; OR BUSINESS INTERRUPTION) HOWEVER
  33:Src/rtc.c     ****   * CAUSED AND ON ANY THEORY OF LIABILITY, WHETHER IN CONTRACT, STRICT LIABILITY,
ARM GAS  C:\Users\MARIUS~1\AppData\Local\Temp\ccLGaoGk.s 			page 2


  34:Src/rtc.c     ****   * OR TORT (INCLUDING NEGLIGENCE OR OTHERWISE) ARISING IN ANY WAY OUT OF THE USE
  35:Src/rtc.c     ****   * OF THIS SOFTWARE, EVEN IF ADVISED OF THE POSSIBILITY OF SUCH DAMAGE.
  36:Src/rtc.c     ****   *
  37:Src/rtc.c     ****   ******************************************************************************
  38:Src/rtc.c     ****   */
  39:Src/rtc.c     **** 
  40:Src/rtc.c     **** /* Includes ------------------------------------------------------------------*/
  41:Src/rtc.c     **** #include "rtc.h"
  42:Src/rtc.c     **** 
  43:Src/rtc.c     **** /* USER CODE BEGIN 0 */
  44:Src/rtc.c     **** 
  45:Src/rtc.c     **** /* Buffers used for displaying Time and Date */
  46:Src/rtc.c     **** uint8_t aShowTime[50] = {0};
  47:Src/rtc.c     **** uint8_t aShowDate[50] = {0};
  48:Src/rtc.c     **** 
  49:Src/rtc.c     **** /* USER CODE END 0 */
  50:Src/rtc.c     **** 
  51:Src/rtc.c     **** RTC_HandleTypeDef hrtc;
  52:Src/rtc.c     **** 
  53:Src/rtc.c     **** /* RTC init function */
  54:Src/rtc.c     **** void MX_RTC_Init(void)
  55:Src/rtc.c     **** {
  26              		.loc 1 55 0
  27              		.cfi_startproc
  28              		@ args = 0, pretend = 0, frame = 24
  29              		@ frame_needed = 0, uses_anonymous_args = 0
  30 0000 00B5     		push	{lr}
  31              	.LCFI0:
  32              		.cfi_def_cfa_offset 4
  33              		.cfi_offset 14, -4
  34 0002 87B0     		sub	sp, sp, #28
  35              	.LCFI1:
  36              		.cfi_def_cfa_offset 32
  56:Src/rtc.c     ****   RTC_TimeTypeDef sTime;
  57:Src/rtc.c     ****   RTC_DateTypeDef sDate;
  58:Src/rtc.c     **** 
  59:Src/rtc.c     ****     /**Initialize RTC Only
  60:Src/rtc.c     ****     */
  61:Src/rtc.c     ****   hrtc.Instance = RTC;
  37              		.loc 1 61 0
  38 0004 1D48     		ldr	r0, .L8
  39 0006 1E4B     		ldr	r3, .L8+4
  40 0008 0360     		str	r3, [r0]
  62:Src/rtc.c     ****   hrtc.Init.HourFormat = RTC_HOURFORMAT_24;
  41              		.loc 1 62 0
  42 000a 0023     		movs	r3, #0
  43 000c 4360     		str	r3, [r0, #4]
  63:Src/rtc.c     ****   hrtc.Init.AsynchPrediv = 127;
  44              		.loc 1 63 0
  45 000e 7F22     		movs	r2, #127
  46 0010 8260     		str	r2, [r0, #8]
  64:Src/rtc.c     ****   hrtc.Init.SynchPrediv = 255;
  47              		.loc 1 64 0
  48 0012 8032     		adds	r2, r2, #128
  49 0014 C260     		str	r2, [r0, #12]
  65:Src/rtc.c     ****   hrtc.Init.OutPut = RTC_OUTPUT_DISABLE;
  50              		.loc 1 65 0
ARM GAS  C:\Users\MARIUS~1\AppData\Local\Temp\ccLGaoGk.s 			page 3


  51 0016 0361     		str	r3, [r0, #16]
  66:Src/rtc.c     ****   hrtc.Init.OutPutPolarity = RTC_OUTPUT_POLARITY_HIGH;
  52              		.loc 1 66 0
  53 0018 4361     		str	r3, [r0, #20]
  67:Src/rtc.c     ****   hrtc.Init.OutPutType = RTC_OUTPUT_TYPE_OPENDRAIN;
  54              		.loc 1 67 0
  55 001a 8361     		str	r3, [r0, #24]
  68:Src/rtc.c     ****   if (HAL_RTC_Init(&hrtc) != HAL_OK)
  56              		.loc 1 68 0
  57 001c FFF7FEFF 		bl	HAL_RTC_Init
  58              	.LVL0:
  59 0020 0028     		cmp	r0, #0
  60 0022 1CD1     		bne	.L5
  61              	.L2:
  69:Src/rtc.c     ****   {
  70:Src/rtc.c     ****     _Error_Handler(__FILE__, __LINE__);
  71:Src/rtc.c     ****   }
  72:Src/rtc.c     ****   /* USER CODE BEGIN RTC_Init 2 */
  73:Src/rtc.c     **** 
  74:Src/rtc.c     ****   /* USER CODE END RTC_Init 2 */
  75:Src/rtc.c     **** 
  76:Src/rtc.c     ****     /**Initialize RTC and set the Time and Date
  77:Src/rtc.c     ****     */
  78:Src/rtc.c     ****   sTime.Hours = 0x0;
  62              		.loc 1 78 0
  63 0024 01A9     		add	r1, sp, #4
  64 0026 0023     		movs	r3, #0
  65 0028 0B70     		strb	r3, [r1]
  79:Src/rtc.c     ****   sTime.Minutes = 0x0;
  66              		.loc 1 79 0
  67 002a 4B70     		strb	r3, [r1, #1]
  80:Src/rtc.c     ****   sTime.Seconds = 0x0;
  68              		.loc 1 80 0
  69 002c 8B70     		strb	r3, [r1, #2]
  81:Src/rtc.c     ****   sTime.DayLightSaving = RTC_DAYLIGHTSAVING_NONE;
  70              		.loc 1 81 0
  71 002e CB60     		str	r3, [r1, #12]
  82:Src/rtc.c     ****   sTime.StoreOperation = RTC_STOREOPERATION_RESET;
  72              		.loc 1 82 0
  73 0030 0B61     		str	r3, [r1, #16]
  83:Src/rtc.c     ****   if (HAL_RTC_SetTime(&hrtc, &sTime, RTC_FORMAT_BCD) != HAL_OK)
  74              		.loc 1 83 0
  75 0032 0122     		movs	r2, #1
  76 0034 1148     		ldr	r0, .L8
  77 0036 FFF7FEFF 		bl	HAL_RTC_SetTime
  78              	.LVL1:
  79 003a 0028     		cmp	r0, #0
  80 003c 14D1     		bne	.L6
  81              	.L3:
  84:Src/rtc.c     ****   {
  85:Src/rtc.c     ****     _Error_Handler(__FILE__, __LINE__);
  86:Src/rtc.c     ****   }
  87:Src/rtc.c     ****   /* USER CODE BEGIN RTC_Init 3 */
  88:Src/rtc.c     **** 
  89:Src/rtc.c     ****   /* USER CODE END RTC_Init 3 */
  90:Src/rtc.c     **** 
  91:Src/rtc.c     ****   sDate.WeekDay = RTC_WEEKDAY_MONDAY;
ARM GAS  C:\Users\MARIUS~1\AppData\Local\Temp\ccLGaoGk.s 			page 4


  82              		.loc 1 91 0
  83 003e 0123     		movs	r3, #1
  84 0040 6A46     		mov	r2, sp
  85 0042 1370     		strb	r3, [r2]
  92:Src/rtc.c     ****   sDate.Month = RTC_MONTH_JANUARY;
  86              		.loc 1 92 0
  87 0044 5370     		strb	r3, [r2, #1]
  93:Src/rtc.c     ****   sDate.Date = 0x1;
  88              		.loc 1 93 0
  89 0046 9370     		strb	r3, [r2, #2]
  94:Src/rtc.c     ****   sDate.Year = 0x0;
  90              		.loc 1 94 0
  91 0048 0023     		movs	r3, #0
  92 004a D370     		strb	r3, [r2, #3]
  95:Src/rtc.c     **** 
  96:Src/rtc.c     ****   if (HAL_RTC_SetDate(&hrtc, &sDate, RTC_FORMAT_BCD) != HAL_OK)
  93              		.loc 1 96 0
  94 004c 0122     		movs	r2, #1
  95 004e 6946     		mov	r1, sp
  96 0050 0A48     		ldr	r0, .L8
  97 0052 FFF7FEFF 		bl	HAL_RTC_SetDate
  98              	.LVL2:
  99 0056 0028     		cmp	r0, #0
 100 0058 0BD1     		bne	.L7
 101              	.L1:
  97:Src/rtc.c     ****   {
  98:Src/rtc.c     ****     _Error_Handler(__FILE__, __LINE__);
  99:Src/rtc.c     ****   }
 100:Src/rtc.c     ****   /* USER CODE BEGIN RTC_Init 4 */
 101:Src/rtc.c     **** 
 102:Src/rtc.c     ****   /* USER CODE END RTC_Init 4 */
 103:Src/rtc.c     **** 
 104:Src/rtc.c     **** }
 102              		.loc 1 104 0
 103 005a 07B0     		add	sp, sp, #28
 104              		@ sp needed
 105 005c 00BD     		pop	{pc}
 106              	.L5:
  70:Src/rtc.c     ****   }
 107              		.loc 1 70 0
 108 005e 4621     		movs	r1, #70
 109 0060 0848     		ldr	r0, .L8+8
 110 0062 FFF7FEFF 		bl	_Error_Handler
 111              	.LVL3:
 112 0066 DDE7     		b	.L2
 113              	.L6:
  85:Src/rtc.c     ****   }
 114              		.loc 1 85 0
 115 0068 5521     		movs	r1, #85
 116 006a 0648     		ldr	r0, .L8+8
 117 006c FFF7FEFF 		bl	_Error_Handler
 118              	.LVL4:
 119 0070 E5E7     		b	.L3
 120              	.L7:
  98:Src/rtc.c     ****   }
 121              		.loc 1 98 0
 122 0072 6221     		movs	r1, #98
ARM GAS  C:\Users\MARIUS~1\AppData\Local\Temp\ccLGaoGk.s 			page 5


 123 0074 0348     		ldr	r0, .L8+8
 124 0076 FFF7FEFF 		bl	_Error_Handler
 125              	.LVL5:
 126              		.loc 1 104 0
 127 007a EEE7     		b	.L1
 128              	.L9:
 129              		.align	2
 130              	.L8:
 131 007c 00000000 		.word	hrtc
 132 0080 00280040 		.word	1073752064
 133 0084 00000000 		.word	.LC1
 134              		.cfi_endproc
 135              	.LFE37:
 137              		.section	.text.HAL_RTC_MspInit,"ax",%progbits
 138              		.align	1
 139              		.global	HAL_RTC_MspInit
 140              		.syntax unified
 141              		.code	16
 142              		.thumb_func
 143              		.fpu softvfp
 145              	HAL_RTC_MspInit:
 146              	.LFB38:
 105:Src/rtc.c     **** 
 106:Src/rtc.c     **** void HAL_RTC_MspInit(RTC_HandleTypeDef* hrtc)
 107:Src/rtc.c     **** {
 147              		.loc 1 107 0
 148              		.cfi_startproc
 149              		@ args = 0, pretend = 0, frame = 0
 150              		@ frame_needed = 0, uses_anonymous_args = 0
 151              		@ link register save eliminated.
 152              	.LVL6:
 108:Src/rtc.c     **** 
 109:Src/rtc.c     ****   if(hrtc->Instance==RTC)
 153              		.loc 1 109 0
 154 0000 0268     		ldr	r2, [r0]
 155 0002 054B     		ldr	r3, .L13
 156 0004 9A42     		cmp	r2, r3
 157 0006 00D0     		beq	.L12
 158              	.L10:
 110:Src/rtc.c     ****   {
 111:Src/rtc.c     ****   /* USER CODE BEGIN RTC_MspInit 0 */
 112:Src/rtc.c     **** 
 113:Src/rtc.c     ****   /* USER CODE END RTC_MspInit 0 */
 114:Src/rtc.c     ****     /* RTC clock enable */
 115:Src/rtc.c     ****     __HAL_RCC_RTC_ENABLE();
 116:Src/rtc.c     ****   /* USER CODE BEGIN RTC_MspInit 1 */
 117:Src/rtc.c     **** 
 118:Src/rtc.c     ****   /* USER CODE END RTC_MspInit 1 */
 119:Src/rtc.c     ****   }
 120:Src/rtc.c     **** }
 159              		.loc 1 120 0
 160              		@ sp needed
 161 0008 7047     		bx	lr
 162              	.L12:
 115:Src/rtc.c     ****   /* USER CODE BEGIN RTC_MspInit 1 */
 163              		.loc 1 115 0
 164 000a 044A     		ldr	r2, .L13+4
ARM GAS  C:\Users\MARIUS~1\AppData\Local\Temp\ccLGaoGk.s 			page 6


 165 000c 116A     		ldr	r1, [r2, #32]
 166 000e 8023     		movs	r3, #128
 167 0010 1B02     		lsls	r3, r3, #8
 168 0012 0B43     		orrs	r3, r1
 169 0014 1362     		str	r3, [r2, #32]
 170              		.loc 1 120 0
 171 0016 F7E7     		b	.L10
 172              	.L14:
 173              		.align	2
 174              	.L13:
 175 0018 00280040 		.word	1073752064
 176 001c 00100240 		.word	1073876992
 177              		.cfi_endproc
 178              	.LFE38:
 180              		.section	.text.HAL_RTC_MspDeInit,"ax",%progbits
 181              		.align	1
 182              		.global	HAL_RTC_MspDeInit
 183              		.syntax unified
 184              		.code	16
 185              		.thumb_func
 186              		.fpu softvfp
 188              	HAL_RTC_MspDeInit:
 189              	.LFB39:
 121:Src/rtc.c     **** 
 122:Src/rtc.c     **** void HAL_RTC_MspDeInit(RTC_HandleTypeDef* hrtc)
 123:Src/rtc.c     **** {
 190              		.loc 1 123 0
 191              		.cfi_startproc
 192              		@ args = 0, pretend = 0, frame = 0
 193              		@ frame_needed = 0, uses_anonymous_args = 0
 194              		@ link register save eliminated.
 195              	.LVL7:
 124:Src/rtc.c     **** 
 125:Src/rtc.c     ****   if(hrtc->Instance==RTC)
 196              		.loc 1 125 0
 197 0000 0268     		ldr	r2, [r0]
 198 0002 054B     		ldr	r3, .L18
 199 0004 9A42     		cmp	r2, r3
 200 0006 00D0     		beq	.L17
 201              	.L15:
 126:Src/rtc.c     ****   {
 127:Src/rtc.c     ****   /* USER CODE BEGIN RTC_MspDeInit 0 */
 128:Src/rtc.c     **** 
 129:Src/rtc.c     ****   /* USER CODE END RTC_MspDeInit 0 */
 130:Src/rtc.c     ****     /* Peripheral clock disable */
 131:Src/rtc.c     ****     __HAL_RCC_RTC_DISABLE();
 132:Src/rtc.c     ****   /* USER CODE BEGIN RTC_MspDeInit 1 */
 133:Src/rtc.c     **** 
 134:Src/rtc.c     ****   /* USER CODE END RTC_MspDeInit 1 */
 135:Src/rtc.c     ****   }
 136:Src/rtc.c     **** }
 202              		.loc 1 136 0
 203              		@ sp needed
 204 0008 7047     		bx	lr
 205              	.L17:
 131:Src/rtc.c     ****   /* USER CODE BEGIN RTC_MspDeInit 1 */
 206              		.loc 1 131 0
ARM GAS  C:\Users\MARIUS~1\AppData\Local\Temp\ccLGaoGk.s 			page 7


 207 000a 044A     		ldr	r2, .L18+4
 208 000c 136A     		ldr	r3, [r2, #32]
 209 000e 0449     		ldr	r1, .L18+8
 210 0010 0B40     		ands	r3, r1
 211 0012 1362     		str	r3, [r2, #32]
 212              		.loc 1 136 0
 213 0014 F8E7     		b	.L15
 214              	.L19:
 215 0016 C046     		.align	2
 216              	.L18:
 217 0018 00280040 		.word	1073752064
 218 001c 00100240 		.word	1073876992
 219 0020 FF7FFFFF 		.word	-32769
 220              		.cfi_endproc
 221              	.LFE39:
 223              		.section	.text.RTC_Set_Hours_Minutes,"ax",%progbits
 224              		.align	1
 225              		.global	RTC_Set_Hours_Minutes
 226              		.syntax unified
 227              		.code	16
 228              		.thumb_func
 229              		.fpu softvfp
 231              	RTC_Set_Hours_Minutes:
 232              	.LFB40:
 137:Src/rtc.c     **** 
 138:Src/rtc.c     **** /* USER CODE BEGIN 1 */
 139:Src/rtc.c     **** 
 140:Src/rtc.c     **** 
 141:Src/rtc.c     **** /**
 142:Src/rtc.c     ****   * @brief  Configure the current time and date.
 143:Src/rtc.c     ****   * @param  None
 144:Src/rtc.c     ****   * @retval None
 145:Src/rtc.c     ****   */
 146:Src/rtc.c     **** void RTC_Set_Hours_Minutes(uint16_t hours, uint16_t minutes)
 147:Src/rtc.c     **** {
 233              		.loc 1 147 0
 234              		.cfi_startproc
 235              		@ args = 0, pretend = 0, frame = 24
 236              		@ frame_needed = 0, uses_anonymous_args = 0
 237              	.LVL8:
 238 0000 30B5     		push	{r4, r5, lr}
 239              	.LCFI2:
 240              		.cfi_def_cfa_offset 12
 241              		.cfi_offset 4, -12
 242              		.cfi_offset 5, -8
 243              		.cfi_offset 14, -4
 244 0002 87B0     		sub	sp, sp, #28
 245              	.LCFI3:
 246              		.cfi_def_cfa_offset 40
 247 0004 0500     		movs	r5, r0
 248 0006 0C00     		movs	r4, r1
 148:Src/rtc.c     ****   RTC_DateTypeDef sdatestructure;
 149:Src/rtc.c     ****   RTC_TimeTypeDef stimestructure;
 150:Src/rtc.c     **** 
 151:Src/rtc.c     ****   /*##-1- Configure the Date #################################################*/
 152:Src/rtc.c     ****   /* Set Date: Monday April 14th 2014 */
 153:Src/rtc.c     ****   sdatestructure.Year = 0x14;
ARM GAS  C:\Users\MARIUS~1\AppData\Local\Temp\ccLGaoGk.s 			page 8


 249              		.loc 1 153 0
 250 0008 05A9     		add	r1, sp, #20
 251              	.LVL9:
 252 000a 1423     		movs	r3, #20
 253 000c CB70     		strb	r3, [r1, #3]
 154:Src/rtc.c     ****   sdatestructure.Month = RTC_MONTH_APRIL;
 254              		.loc 1 154 0
 255 000e 0422     		movs	r2, #4
 256 0010 4A70     		strb	r2, [r1, #1]
 155:Src/rtc.c     ****   sdatestructure.Date = 0x14;
 257              		.loc 1 155 0
 258 0012 8B70     		strb	r3, [r1, #2]
 156:Src/rtc.c     ****   sdatestructure.WeekDay = RTC_WEEKDAY_MONDAY;
 259              		.loc 1 156 0
 260 0014 133B     		subs	r3, r3, #19
 261 0016 0B70     		strb	r3, [r1]
 157:Src/rtc.c     **** 
 158:Src/rtc.c     ****   if(HAL_RTC_SetDate(&hrtc,&sdatestructure,RTC_FORMAT_BCD) != HAL_OK)
 262              		.loc 1 158 0
 263 0018 033A     		subs	r2, r2, #3
 264 001a 1048     		ldr	r0, .L25
 265              	.LVL10:
 266 001c FFF7FEFF 		bl	HAL_RTC_SetDate
 267              	.LVL11:
 268 0020 0028     		cmp	r0, #0
 269 0022 11D1     		bne	.L23
 270              	.L21:
 159:Src/rtc.c     ****   {
 160:Src/rtc.c     ****     /* Error */
 161:Src/rtc.c     ****     Error_Handler();
 162:Src/rtc.c     ****   }
 163:Src/rtc.c     **** 
 164:Src/rtc.c     ****   /*##-2- Configure the Time #################################################*/
 165:Src/rtc.c     ****   /* Set Time: 02:00:00 */
 166:Src/rtc.c     ****   stimestructure.Hours = hours;
 271              		.loc 1 166 0
 272 0024 6B46     		mov	r3, sp
 273 0026 1D70     		strb	r5, [r3]
 167:Src/rtc.c     ****   stimestructure.Minutes = minutes;
 274              		.loc 1 167 0
 275 0028 5C70     		strb	r4, [r3, #1]
 168:Src/rtc.c     ****   stimestructure.Seconds = 0x00;
 276              		.loc 1 168 0
 277 002a 0023     		movs	r3, #0
 278 002c 6A46     		mov	r2, sp
 279 002e 9370     		strb	r3, [r2, #2]
 169:Src/rtc.c     ****   stimestructure.TimeFormat = RTC_HOURFORMAT12_AM;
 280              		.loc 1 169 0
 281 0030 D370     		strb	r3, [r2, #3]
 170:Src/rtc.c     ****   stimestructure.DayLightSaving = RTC_DAYLIGHTSAVING_NONE;
 282              		.loc 1 170 0
 283 0032 0393     		str	r3, [sp, #12]
 171:Src/rtc.c     ****   stimestructure.StoreOperation = RTC_STOREOPERATION_RESET;
 284              		.loc 1 171 0
 285 0034 0493     		str	r3, [sp, #16]
 172:Src/rtc.c     **** 
 173:Src/rtc.c     ****   if(HAL_RTC_SetTime(&hrtc,&stimestructure,RTC_FORMAT_BCD) != HAL_OK)
ARM GAS  C:\Users\MARIUS~1\AppData\Local\Temp\ccLGaoGk.s 			page 9


 286              		.loc 1 173 0
 287 0036 0122     		movs	r2, #1
 288 0038 6946     		mov	r1, sp
 289 003a 0848     		ldr	r0, .L25
 290 003c FFF7FEFF 		bl	HAL_RTC_SetTime
 291              	.LVL12:
 292 0040 0028     		cmp	r0, #0
 293 0042 06D1     		bne	.L24
 294              	.L20:
 174:Src/rtc.c     ****   {
 175:Src/rtc.c     ****     /* Error */
 176:Src/rtc.c     ****     Error_Handler();
 177:Src/rtc.c     ****   }
 178:Src/rtc.c     **** 
 179:Src/rtc.c     ****   /*##-3- Writes a data in a RTC Backup data Register0 #######################*/
 180:Src/rtc.c     ****   //HAL_RTCEx_BKUPWrite(&hrtc,RTC_BKP_DR0,0x32F2);
 181:Src/rtc.c     **** }
 295              		.loc 1 181 0
 296 0044 07B0     		add	sp, sp, #28
 297              		@ sp needed
 298 0046 30BD     		pop	{r4, r5, pc}
 299              	.L23:
 161:Src/rtc.c     ****   }
 300              		.loc 1 161 0
 301 0048 A121     		movs	r1, #161
 302 004a 0548     		ldr	r0, .L25+4
 303 004c FFF7FEFF 		bl	_Error_Handler
 304              	.LVL13:
 305 0050 E8E7     		b	.L21
 306              	.L24:
 176:Src/rtc.c     ****   }
 307              		.loc 1 176 0
 308 0052 B021     		movs	r1, #176
 309 0054 0248     		ldr	r0, .L25+4
 310 0056 FFF7FEFF 		bl	_Error_Handler
 311              	.LVL14:
 312              		.loc 1 181 0
 313 005a F3E7     		b	.L20
 314              	.L26:
 315              		.align	2
 316              	.L25:
 317 005c 00000000 		.word	hrtc
 318 0060 00000000 		.word	.LC1
 319              		.cfi_endproc
 320              	.LFE40:
 322              		.section	.text.RTC_CalendarShow,"ax",%progbits
 323              		.align	1
 324              		.global	RTC_CalendarShow
 325              		.syntax unified
 326              		.code	16
 327              		.thumb_func
 328              		.fpu softvfp
 330              	RTC_CalendarShow:
 331              	.LFB41:
 182:Src/rtc.c     **** 
 183:Src/rtc.c     **** /**
 184:Src/rtc.c     ****   * @brief  Display the current time and date.
ARM GAS  C:\Users\MARIUS~1\AppData\Local\Temp\ccLGaoGk.s 			page 10


 185:Src/rtc.c     ****   * @param  showtime: pointer to buffer
 186:Src/rtc.c     ****   * @param  showdate: pointer to buffer
 187:Src/rtc.c     ****   * @retval None
 188:Src/rtc.c     ****   */
 189:Src/rtc.c     **** void RTC_CalendarShow(uint8_t *showtime, uint8_t *showdate)
 190:Src/rtc.c     **** {
 332              		.loc 1 190 0
 333              		.cfi_startproc
 334              		@ args = 0, pretend = 0, frame = 32
 335              		@ frame_needed = 0, uses_anonymous_args = 0
 336              	.LVL15:
 337 0000 F0B5     		push	{r4, r5, r6, r7, lr}
 338              	.LCFI4:
 339              		.cfi_def_cfa_offset 20
 340              		.cfi_offset 4, -20
 341              		.cfi_offset 5, -16
 342              		.cfi_offset 6, -12
 343              		.cfi_offset 7, -8
 344              		.cfi_offset 14, -4
 345 0002 8BB0     		sub	sp, sp, #44
 346              	.LCFI5:
 347              		.cfi_def_cfa_offset 64
 348 0004 0700     		movs	r7, r0
 349 0006 0391     		str	r1, [sp, #12]
 191:Src/rtc.c     ****   RTC_DateTypeDef sdatestructureget;
 192:Src/rtc.c     ****   RTC_TimeTypeDef stimestructureget;
 193:Src/rtc.c     **** 
 194:Src/rtc.c     ****   /* Get the RTC current Time */
 195:Src/rtc.c     ****   HAL_RTC_GetTime(&hrtc, &stimestructureget, RTC_FORMAT_BIN);
 350              		.loc 1 195 0
 351 0008 04AD     		add	r5, sp, #16
 352 000a 114E     		ldr	r6, .L28
 353 000c 0022     		movs	r2, #0
 354 000e 2900     		movs	r1, r5
 355              	.LVL16:
 356 0010 3000     		movs	r0, r6
 357              	.LVL17:
 358 0012 FFF7FEFF 		bl	HAL_RTC_GetTime
 359              	.LVL18:
 196:Src/rtc.c     ****   /* Get the RTC current Date */
 197:Src/rtc.c     ****   HAL_RTC_GetDate(&hrtc, &sdatestructureget, RTC_FORMAT_BIN);
 360              		.loc 1 197 0
 361 0016 09AC     		add	r4, sp, #36
 362 0018 0022     		movs	r2, #0
 363 001a 2100     		movs	r1, r4
 364 001c 3000     		movs	r0, r6
 365 001e FFF7FEFF 		bl	HAL_RTC_GetDate
 366              	.LVL19:
 198:Src/rtc.c     **** 
 199:Src/rtc.c     ****   /* Display time Format: hh:mm:ss */
 200:Src/rtc.c     ****   debugPrint((char*)showtime,"%02d:%02d:%02d",stimestructureget.Hours, stimestructureget.Minutes, s
 367              		.loc 1 200 0
 368 0022 2A78     		ldrb	r2, [r5]
 369 0024 6B78     		ldrb	r3, [r5, #1]
 370 0026 A978     		ldrb	r1, [r5, #2]
 371 0028 0091     		str	r1, [sp]
 372 002a 0A49     		ldr	r1, .L28+4
ARM GAS  C:\Users\MARIUS~1\AppData\Local\Temp\ccLGaoGk.s 			page 11


 373 002c 3800     		movs	r0, r7
 374 002e FFF7FEFF 		bl	debugPrint
 375              	.LVL20:
 201:Src/rtc.c     ****   /* Display date Format: mm-dd-yy */
 202:Src/rtc.c     ****   debugPrint((char*)showdate,"%02d-%02d-%02d",sdatestructureget.Month, sdatestructureget.Date, 2000
 376              		.loc 1 202 0
 377 0032 6278     		ldrb	r2, [r4, #1]
 378 0034 A378     		ldrb	r3, [r4, #2]
 379 0036 E178     		ldrb	r1, [r4, #3]
 380 0038 FA24     		movs	r4, #250
 381 003a E400     		lsls	r4, r4, #3
 382 003c A446     		mov	ip, r4
 383 003e 6144     		add	r1, r1, ip
 384 0040 0091     		str	r1, [sp]
 385 0042 0549     		ldr	r1, .L28+8
 386 0044 0398     		ldr	r0, [sp, #12]
 387 0046 FFF7FEFF 		bl	debugPrint
 388              	.LVL21:
 203:Src/rtc.c     **** 
 204:Src/rtc.c     **** }
 389              		.loc 1 204 0
 390 004a 0BB0     		add	sp, sp, #44
 391              		@ sp needed
 392              	.LVL22:
 393 004c F0BD     		pop	{r4, r5, r6, r7, pc}
 394              	.L29:
 395 004e C046     		.align	2
 396              	.L28:
 397 0050 00000000 		.word	hrtc
 398 0054 00000000 		.word	.LC6
 399 0058 10000000 		.word	.LC8
 400              		.cfi_endproc
 401              	.LFE41:
 403              		.comm	hrtc,32,4
 404              		.global	aShowDate
 405              		.global	aShowTime
 406              		.section	.bss.aShowDate,"aw",%nobits
 407              		.align	2
 410              	aShowDate:
 411 0000 00000000 		.space	50
 411      00000000 
 411      00000000 
 411      00000000 
 411      00000000 
 412              		.section	.bss.aShowTime,"aw",%nobits
 413              		.align	2
 416              	aShowTime:
 417 0000 00000000 		.space	50
 417      00000000 
 417      00000000 
 417      00000000 
 417      00000000 
 418              		.section	.rodata.MX_RTC_Init.str1.4,"aMS",%progbits,1
 419              		.align	2
 420              	.LC1:
 421 0000 5372632F 		.ascii	"Src/rtc.c\000"
 421      7274632E 
ARM GAS  C:\Users\MARIUS~1\AppData\Local\Temp\ccLGaoGk.s 			page 12


 421      6300
 422              		.section	.rodata.RTC_CalendarShow.str1.4,"aMS",%progbits,1
 423              		.align	2
 424              	.LC6:
 425 0000 25303264 		.ascii	"%02d:%02d:%02d\000"
 425      3A253032 
 425      643A2530 
 425      326400
 426 000f 00       		.space	1
 427              	.LC8:
 428 0010 25303264 		.ascii	"%02d-%02d-%02d\000"
 428      2D253032 
 428      642D2530 
 428      326400
 429              		.text
 430              	.Letext0:
 431              		.file 2 "c:\\program files (x86)\\gnu tools arm embedded\\7 2018-q2-update\\arm-none-eabi\\include
 432              		.file 3 "c:\\program files (x86)\\gnu tools arm embedded\\7 2018-q2-update\\arm-none-eabi\\include
 433              		.file 4 "Drivers/CMSIS/Device/ST/STM32F0xx/Include/system_stm32f0xx.h"
 434              		.file 5 "Drivers/CMSIS/Device/ST/STM32F0xx/Include/stm32f030xc.h"
 435              		.file 6 "c:\\program files (x86)\\gnu tools arm embedded\\7 2018-q2-update\\arm-none-eabi\\include
 436              		.file 7 "c:\\program files (x86)\\gnu tools arm embedded\\7 2018-q2-update\\arm-none-eabi\\include
 437              		.file 8 "c:\\program files (x86)\\gnu tools arm embedded\\7 2018-q2-update\\lib\\gcc\\arm-none-eab
 438              		.file 9 "c:\\program files (x86)\\gnu tools arm embedded\\7 2018-q2-update\\arm-none-eabi\\include
 439              		.file 10 "Drivers/STM32F0xx_HAL_Driver/Inc/stm32f0xx_hal_def.h"
 440              		.file 11 "Drivers/STM32F0xx_HAL_Driver/Inc/stm32f0xx_hal_rtc.h"
 441              		.file 12 "Inc/rtc.h"
ARM GAS  C:\Users\MARIUS~1\AppData\Local\Temp\ccLGaoGk.s 			page 13

